; Function Attrs: nounwind uwtable
define dso_local range(i64 -32768, 32768) i64 @int2recv(ptr noundef readonly captures(none) %0) local_unnamed_addr #0 {
  %2 = getelementptr inbounds nuw i8, ptr %0, i64 32
  %3 = load i64, ptr %2, align 8
  %4 = inttoptr i64 %3 to ptr
  %5 = tail call i32 @pq_getmsgint(ptr noundef %4, i32 noundef 2) #13
  %6 = zext i32 %5 to i64
  %sext = shl i64 %6, 48
  %7 = ashr exact i64 %sext, 48
  ret i64 %7
}